target datalayout = "e-m:e-p270:32:32-p271:32:32-p272:64:64-i64:64-i128:128-f80:128-n8:16:32:64-S128"
target triple = "x86_64-pc-linux-gnu"

%struct.reftable_write_options = type { i8, i32, i8, i16, i32, i32, i8, i8, i64, ptr, ptr, ptr }
%struct.reftable_stack = type { %struct.stat, ptr, i32, ptr, %struct.reftable_write_options, ptr, i64, ptr, %struct.reftable_compaction_stats }
%struct.stat = type { i64, i64, i64, i32, i32, i32, i32, i64, i64, i64, i64, %struct.timespec, %struct.timespec, %struct.timespec, [3 x i64] }
%struct.timespec = type { i64, i64 }
%struct.reftable_compaction_stats = type { i64, i64, i32, i32 }
%struct.reftable_iterator = type { ptr, ptr }
%struct.reftable_ref_record = type { ptr, i64, i64, i32, %union.anon }
%union.anon = type { ptr, [56 x i8] }

; Function Attrs: nounwind uwtable
define dso_local i32 @reftable_stack_read_ref(ptr noundef %0, ptr noundef %1, ptr noundef %2) #0 {
  %4 = alloca ptr, align 8
  %5 = alloca ptr, align 8
  %6 = alloca ptr, align 8
  %7 = alloca %struct.reftable_iterator, align 8
  %8 = alloca i32, align 4
  store ptr %0, ptr %4, align 8, !tbaa !13
  store ptr %1, ptr %5, align 8, !tbaa !9
  store ptr %2, ptr %6, align 8, !tbaa !147
  call void @llvm.lifetime.start.p0(i64 16, ptr %7) #10
  call void @llvm.memset.p0.i64(ptr align 8 %7, i8 0, i64 16, i1 false)
  call void @llvm.lifetime.start.p0(i64 4, ptr %8) #10
  %9 = load ptr, ptr %4, align 8, !tbaa !13
  %10 = getelementptr inbounds nuw %struct.reftable_stack, ptr %9, i32 0, i32 7
  %11 = load ptr, ptr %10, align 8, !tbaa !43
  %12 = call i32 @reftable_merged_table_init_ref_iterator(ptr noundef %11, ptr noundef %7)
  store i32 %12, ptr %8, align 4, !tbaa !15
  %13 = load i32, ptr %8, align 4, !tbaa !15
  %14 = icmp ne i32 %13, 0
  br i1 %14, label %15, label %16

15:                                               ; preds = %3
  br label %42

16:                                               ; preds = %3
  %17 = load ptr, ptr %5, align 8, !tbaa !9
  %18 = call i32 @reftable_iterator_seek_ref(ptr noundef %7, ptr noundef %17)
  store i32 %18, ptr %8, align 4, !tbaa !15
  %19 = load i32, ptr %8, align 4, !tbaa !15
  %20 = icmp ne i32 %19, 0
  br i1 %20, label %21, label %22

21:                                               ; preds = %16
  br label %42

22:                                               ; preds = %16
  %23 = load ptr, ptr %6, align 8, !tbaa !147
  %24 = call i32 @reftable_iterator_next_ref(ptr noundef %7, ptr noundef %23)
  store i32 %24, ptr %8, align 4, !tbaa !15
  %25 = load i32, ptr %8, align 4, !tbaa !15
  %26 = icmp ne i32 %25, 0
  br i1 %26, label %27, label %28

27:                                               ; preds = %22
  br label %42

28:                                               ; preds = %22
  %29 = load ptr, ptr %6, align 8, !tbaa !147
  %30 = getelementptr inbounds nuw %struct.reftable_ref_record, ptr %29, i32 0, i32 0
  %31 = load ptr, ptr %30, align 8, !tbaa !149
  %32 = load ptr, ptr %5, align 8, !tbaa !9
  %33 = call i32 @strcmp(ptr noundef %31, ptr noundef %32) #12
  %34 = icmp ne i32 %33, 0
  br i1 %34, label %39, label %35

35:                                               ; preds = %28
  %36 = load ptr, ptr %6, align 8, !tbaa !147
  %37 = call i32 @reftable_ref_record_is_deletion(ptr noundef %36)
  %38 = icmp ne i32 %37, 0
  br i1 %38, label %39, label %41

39:                                               ; preds = %35, %28
  %40 = load ptr, ptr %6, align 8, !tbaa !147
  call void @reftable_ref_record_release(ptr noundef %40)
  store i32 1, ptr %8, align 4, !tbaa !15
  br label %42

41:                                               ; preds = %35
  br label %42

42:                                               ; preds = %41, %39, %27, %21, %15
  call void @reftable_iterator_destroy(ptr noundef %7)
  %43 = load i32, ptr %8, align 4, !tbaa !15
  call void @llvm.lifetime.end.p0(i64 4, ptr %8) #10
  call void @llvm.lifetime.end.p0(i64 16, ptr %7) #10
  ret i32 %43
}